#include <math.h>
#include <stdio.h>
#include <stdlib.h>
#include <string.h>

   int main(){
   int n,i,m,k,b,g;
   scanf("%d %d",&n,&k);
   int a[n];
   for(i=0;i<n;i++){
      scanf("%d",&a[i]);
      }
      for(i=1;i<n;i++){
      for(m=0;m<i;m++){
      if(a[i]+a[m]==k){
           b=k;              
           printf("yes");
           return 0;
           }
         }
       if(i==n-1&&b!=k){
         printf("no");
         }
       }
       return 0;
} 
   
