; ModuleID = '3/2048.c'
source_filename = "3/2048.c"
target datalayout = "e-m:e-p270:32:32-p271:32:32-p272:64:64-i64:64-f80:128-n8:16:32:64-S128"
target triple = "x86_64-pc-linux-gnu"

@.str = private unnamed_addr constant [6 x i8] c"%d %d\00", align 1
@.str.1 = private unnamed_addr constant [3 x i8] c"%d\00", align 1
@.str.2 = private unnamed_addr constant [4 x i8] c"yes\00", align 1
@.str.3 = private unnamed_addr constant [3 x i8] c"no\00", align 1

; Function Attrs: noinline nounwind uwtable
define dso_local i32 @main() #0 {
  %1 = alloca i32, align 4
  %2 = alloca i32, align 4
  %3 = alloca i32, align 4
  %4 = alloca i32, align 4
  %5 = alloca i32, align 4
  %6 = alloca i32, align 4
  %7 = alloca i32, align 4
  %8 = alloca i8*, align 8
  %9 = alloca i64, align 8
  %10 = alloca i32, align 4
  store i32 0, i32* %1, align 4
  %11 = call i32 (i8*, ...) @__isoc99_scanf(i8* getelementptr inbounds ([6 x i8], [6 x i8]* @.str, i64 0, i64 0), i32* %2, i32* %5)
  %12 = load i32, i32* %2, align 4
  %13 = zext i32 %12 to i64
  %14 = call i8* @llvm.stacksave()
  store i8* %14, i8** %8, align 8
  %15 = alloca i32, i64 %13, align 16
  store i64 %13, i64* %9, align 8
  store i32 0, i32* %3, align 4
  br label %16

16:                                               ; preds = %25, %0
  %17 = load i32, i32* %3, align 4
  %18 = load i32, i32* %2, align 4
  %19 = icmp slt i32 %17, %18
  br i1 %19, label %20, label %28

20:                                               ; preds = %16
  %21 = load i32, i32* %3, align 4
  %22 = sext i32 %21 to i64
  %23 = getelementptr inbounds i32, i32* %15, i64 %22
  %24 = call i32 (i8*, ...) @__isoc99_scanf(i8* getelementptr inbounds ([3 x i8], [3 x i8]* @.str.1, i64 0, i64 0), i32* %23)
  br label %25

25:                                               ; preds = %20
  %26 = load i32, i32* %3, align 4
  %27 = add nsw i32 %26, 1
  store i32 %27, i32* %3, align 4
  br label %16

28:                                               ; preds = %16
  store i32 1, i32* %3, align 4
  br label %29

29:                                               ; preds = %69, %28
  %30 = load i32, i32* %3, align 4
  %31 = load i32, i32* %2, align 4
  %32 = icmp slt i32 %30, %31
  br i1 %32, label %33, label %72

33:                                               ; preds = %29
  store i32 0, i32* %4, align 4
  br label %34

34:                                               ; preds = %54, %33
  %35 = load i32, i32* %4, align 4
  %36 = load i32, i32* %3, align 4
  %37 = icmp slt i32 %35, %36
  br i1 %37, label %38, label %57

38:                                               ; preds = %34
  %39 = load i32, i32* %3, align 4
  %40 = sext i32 %39 to i64
  %41 = getelementptr inbounds i32, i32* %15, i64 %40
  %42 = load i32, i32* %41, align 4
  %43 = load i32, i32* %4, align 4
  %44 = sext i32 %43 to i64
  %45 = getelementptr inbounds i32, i32* %15, i64 %44
  %46 = load i32, i32* %45, align 4
  %47 = add nsw i32 %42, %46
  %48 = load i32, i32* %5, align 4
  %49 = icmp eq i32 %47, %48
  br i1 %49, label %50, label %53

50:                                               ; preds = %38
  %51 = load i32, i32* %5, align 4
  store i32 %51, i32* %6, align 4
  %52 = call i32 (i8*, ...) @printf(i8* getelementptr inbounds ([4 x i8], [4 x i8]* @.str.2, i64 0, i64 0))
  store i32 0, i32* %1, align 4
  store i32 1, i32* %10, align 4
  br label %73

53:                                               ; preds = %38
  br label %54

54:                                               ; preds = %53
  %55 = load i32, i32* %4, align 4
  %56 = add nsw i32 %55, 1
  store i32 %56, i32* %4, align 4
  br label %34

57:                                               ; preds = %34
  %58 = load i32, i32* %3, align 4
  %59 = load i32, i32* %2, align 4
  %60 = sub nsw i32 %59, 1
  %61 = icmp eq i32 %58, %60
  br i1 %61, label %62, label %68

62:                                               ; preds = %57
  %63 = load i32, i32* %6, align 4
  %64 = load i32, i32* %5, align 4
  %65 = icmp ne i32 %63, %64
  br i1 %65, label %66, label %68

66:                                               ; preds = %62
  %67 = call i32 (i8*, ...) @printf(i8* getelementptr inbounds ([3 x i8], [3 x i8]* @.str.3, i64 0, i64 0))
  br label %68

68:                                               ; preds = %66, %62, %57
  br label %69

69:                                               ; preds = %68
  %70 = load i32, i32* %3, align 4
  %71 = add nsw i32 %70, 1
  store i32 %71, i32* %3, align 4
  br label %29

72:                                               ; preds = %29
  store i32 0, i32* %1, align 4
  store i32 1, i32* %10, align 4
  br label %73

73:                                               ; preds = %72, %50
  %74 = load i8*, i8** %8, align 8
  call void @llvm.stackrestore(i8* %74)
  %75 = load i32, i32* %1, align 4
  ret i32 %75
}

declare dso_local i32 @__isoc99_scanf(i8*, ...) #1

; Function Attrs: nounwind
declare i8* @llvm.stacksave() #2

declare dso_local i32 @printf(i8*, ...) #1

; Function Attrs: nounwind
declare void @llvm.stackrestore(i8*) #2


!llvm.module.flags = !{!0}
!llvm.ident = !{!1}

!0 = !{i32 1, !"wchar_size", i32 4}
!1 = !{!"clang version 10.0.0-4ubuntu1 "}
